; Function Attrs: nounwind uwtable
define hidden i32 @drsuapi_dissect_struct_DsReplicaAttribute(ptr noundef %0, i32 noundef %1, ptr noundef %2, ptr noundef %3, ptr noundef %4, ptr noundef %5, i32 noundef %6, i32 %7) local_unnamed_addr #0 {
  %9 = alloca i32, align 4
  %10 = getelementptr inbounds nuw i8, ptr %4, i64 72
  %11 = load ptr, ptr %10, align 8
  %12 = getelementptr inbounds nuw i8, ptr %11, i64 96
  %13 = load i32, ptr %12, align 8
  %14 = and i32 %13, 1
  %.not = icmp eq i32 %14, 0
  %15 = getelementptr inbounds nuw i8, ptr %4, i64 28
  %16 = load i32, ptr %15, align 4
  %.not40 = icmp ne i32 %16, 0
  br i1 %.not, label %22, label %17

17:                                               ; preds = %8
  %18 = and i32 %1, 7
  %.not43 = icmp eq i32 %18, 0
  %or.cond = or i1 %.not43, %.not40
  br i1 %or.cond, label %27, label %19

19:                                               ; preds = %17
  %20 = and i32 %1, -8
  %21 = add i32 %20, 8
  br label %27

22:                                               ; preds = %8
  %23 = and i32 %1, 3
  %.not41 = icmp eq i32 %23, 0
  %or.cond48 = or i1 %.not41, %.not40
  br i1 %or.cond48, label %27, label %24

24:                                               ; preds = %22
  %25 = and i32 %1, -4
  %26 = add i32 %25, 4
  br label %27

27:                                               ; preds = %22, %24, %17, %19
  %.0 = phi i32 [ %1, %17 ], [ %21, %19 ], [ %1, %22 ], [ %26, %24 ]
  %.not44 = icmp eq ptr %3, null
  br i1 %.not44, label %32, label %28

28:                                               ; preds = %27
  %29 = tail call ptr @proto_tree_add_item(ptr noundef nonnull %3, i32 noundef %6, ptr noundef %0, i32 noundef %.0, i32 noundef -1, i32 noundef 0) #5
  %30 = load i32, ptr @ett_drsuapi_drsuapi_DsReplicaAttribute, align 4
  %31 = tail call ptr @proto_item_add_subtree(ptr noundef %29, i32 noundef %30) #5
  br label %32

32:                                               ; preds = %28, %27
  %.038 = phi ptr [ %29, %28 ], [ null, %27 ]
  %.037 = phi ptr [ %31, %28 ], [ null, %27 ]
  %33 = load i32, ptr @hf_drsuapi_drsuapi_DsReplicaAttribute_attid, align 4
  call void @llvm.lifetime.start.p0(i64 4, ptr nonnull %9)
  store i32 0, ptr %9, align 4
  %34 = call i32 @dissect_ndr_uint32(ptr noundef %0, i32 noundef %.0, ptr noundef %2, ptr noundef %.037, ptr noundef nonnull %4, ptr noundef %5, i32 noundef %33, ptr noundef nonnull %9) #5
  call void @llvm.lifetime.end.p0(i64 4, ptr nonnull %9)
  %35 = load i32, ptr @hf_drsuapi_drsuapi_DsReplicaAttribute_value_ctr, align 4
  %36 = call i32 @drsuapi_dissect_struct_DsAttributeValueCtr(ptr noundef %0, i32 noundef %34, ptr noundef %2, ptr noundef %.037, ptr noundef nonnull %4, ptr noundef %5, i32 noundef %35, i32 poison)
  %37 = sub i32 %36, %.0
  call void @proto_item_set_len(ptr noundef %.038, i32 noundef %37) #5
  %38 = load ptr, ptr %10, align 8
  %39 = getelementptr inbounds nuw i8, ptr %38, i64 96
  %40 = load i32, ptr %39, align 8
  %41 = and i32 %40, 1
  %.not45 = icmp eq i32 %41, 0
  br i1 %.not45, label %49, label %42

42:                                               ; preds = %32
  %43 = getelementptr inbounds nuw i8, ptr %4, i64 28
  %44 = load i32, ptr %43, align 4
  %.not46 = icmp ne i32 %44, 0
  %45 = and i32 %36, 7
  %.not47 = icmp eq i32 %45, 0
  %or.cond49 = or i1 %.not47, %.not46
  br i1 %or.cond49, label %49, label %46

46:                                               ; preds = %42
  %47 = and i32 %36, -8
  %48 = add i32 %47, 8
  br label %49

49:                                               ; preds = %46, %42, %32
  %.1 = phi i32 [ %36, %42 ], [ %48, %46 ], [ %36, %32 ]
  ret i32 %.1
}